; Function Attrs: mustprogress uwtable
define noundef zeroext i1 @_Z14grpc_parse_uriRKN9grpc_core3URIEP21grpc_resolved_address(ptr noundef nonnull align 8 dereferenceable(200) %0, ptr noundef %1) local_unnamed_addr #3 personality ptr @__gxx_personality_v0 {
  %3 = alloca %"class.absl::lts_20240722::log_internal::LogMessage", align 8
  %4 = tail call noundef i32 @_ZNKSt7__cxx1112basic_stringIcSt11char_traitsIcESaIcEE7compareEPKc(ptr noundef nonnull align 8 dereferenceable(32) %0, ptr noundef nonnull @.str) #25
  %5 = icmp eq i32 %4, 0
  br i1 %5, label %6, label %8

6:                                                ; preds = %2
  %7 = tail call noundef zeroext i1 @_Z15grpc_parse_unixRKN9grpc_core3URIEP21grpc_resolved_address(ptr noundef nonnull align 8 dereferenceable(200) %0, ptr noundef %1)
  br label %33

8:                                                ; preds = %2
  %9 = tail call noundef i32 @_ZNKSt7__cxx1112basic_stringIcSt11char_traitsIcESaIcEE7compareEPKc(ptr noundef nonnull align 8 dereferenceable(32) %0, ptr noundef nonnull @.str.5) #25
  %10 = icmp eq i32 %9, 0
  br i1 %10, label %11, label %13

11:                                               ; preds = %8
  %12 = tail call noundef zeroext i1 @_Z24grpc_parse_unix_abstractRKN9grpc_core3URIEP21grpc_resolved_address(ptr noundef nonnull align 8 dereferenceable(200) %0, ptr noundef %1)
  br label %33

13:                                               ; preds = %8
  %14 = tail call noundef i32 @_ZNKSt7__cxx1112basic_stringIcSt11char_traitsIcESaIcEE7compareEPKc(ptr noundef nonnull align 8 dereferenceable(32) %0, ptr noundef nonnull @.str.9) #25
  %15 = icmp eq i32 %14, 0
  br i1 %15, label %16, label %18

16:                                               ; preds = %13
  %17 = tail call noundef zeroext i1 @_Z16grpc_parse_vsockRKN9grpc_core3URIEP21grpc_resolved_address(ptr noundef nonnull align 8 dereferenceable(200) %0, ptr noundef %1)
  br label %33

18:                                               ; preds = %13
  %19 = tail call noundef i32 @_ZNKSt7__cxx1112basic_stringIcSt11char_traitsIcESaIcEE7compareEPKc(ptr noundef nonnull align 8 dereferenceable(32) %0, ptr noundef nonnull @.str.19) #25
  %20 = icmp eq i32 %19, 0
  br i1 %20, label %21, label %23

21:                                               ; preds = %18
  %22 = tail call noundef zeroext i1 @_Z15grpc_parse_ipv4RKN9grpc_core3URIEP21grpc_resolved_address(ptr noundef nonnull align 8 dereferenceable(200) %0, ptr noundef %1)
  br label %33

23:                                               ; preds = %18
  %24 = tail call noundef i32 @_ZNKSt7__cxx1112basic_stringIcSt11char_traitsIcESaIcEE7compareEPKc(ptr noundef nonnull align 8 dereferenceable(32) %0, ptr noundef nonnull @.str.31) #25
  %25 = icmp eq i32 %24, 0
  br i1 %25, label %26, label %28

26:                                               ; preds = %23
  %27 = tail call noundef zeroext i1 @_Z15grpc_parse_ipv6RKN9grpc_core3URIEP21grpc_resolved_address(ptr noundef nonnull align 8 dereferenceable(200) %0, ptr noundef %1)
  br label %33

28:                                               ; preds = %23
  call void @llvm.lifetime.start.p0(i64 16, ptr nonnull %3) #25
  call void @_ZN4absl12lts_2024072212log_internal10LogMessageC1EPKciNS2_8ErrorTagE(ptr noundef nonnull align 8 dereferenceable(16) %3, ptr noundef nonnull @.str.1, i32 noundef 366) #26
  invoke void @_ZN4absl12lts_2024072212log_internal10LogMessage19CopyToEncodedBufferILNS2_10StringTypeE0EEEvSt17basic_string_viewIcSt11char_traitsIcEE(ptr noundef nonnull align 8 dereferenceable(16) %3, i64 20, ptr nonnull @.str.33)
          to label %_ZN4absl12lts_2024072212log_internal10LogMessagelsILi21EEERS2_RAT__Kc.exit unwind label %31

_ZN4absl12lts_2024072212log_internal10LogMessagelsILi21EEERS2_RAT__Kc.exit: ; preds = %28
  %29 = invoke noundef nonnull align 8 dereferenceable(16) ptr @_ZN4absl12lts_2024072212log_internal10LogMessagelsERKNSt7__cxx1112basic_stringIcSt11char_traitsIcESaIcEEE(ptr noundef nonnull align 8 dereferenceable(16) %3, ptr noundef nonnull align 8 dereferenceable(32) %0)
          to label %30 unwind label %31

30:                                               ; preds = %_ZN4absl12lts_2024072212log_internal10LogMessagelsILi21EEERS2_RAT__Kc.exit
  invoke void @_ZN4absl12lts_2024072212log_internal10LogMessage19CopyToEncodedBufferILNS2_10StringTypeE0EEEvSt17basic_string_viewIcSt11char_traitsIcEE(ptr noundef nonnull align 8 dereferenceable(16) %29, i64 1, ptr nonnull @.str.3)
          to label %_ZN4absl12lts_2024072212log_internal10LogMessagelsILi2EEERS2_RAT__Kc.exit unwind label %31

_ZN4absl12lts_2024072212log_internal10LogMessagelsILi2EEERS2_RAT__Kc.exit: ; preds = %30
  call void @_ZN4absl12lts_2024072212log_internal10LogMessageD1Ev(ptr noundef nonnull align 8 dereferenceable(16) %3) #27
  call void @llvm.lifetime.end.p0(i64 16, ptr nonnull %3) #25
  br label %33

31:                                               ; preds = %30, %28, %_ZN4absl12lts_2024072212log_internal10LogMessagelsILi21EEERS2_RAT__Kc.exit
  %32 = landingpad { ptr, i32 }
          cleanup
  call void @_ZN4absl12lts_2024072212log_internal10LogMessageD1Ev(ptr noundef nonnull align 8 dereferenceable(16) %3) #27
  call void @llvm.lifetime.end.p0(i64 16, ptr nonnull %3) #25
  resume { ptr, i32 } %32

33:                                               ; preds = %_ZN4absl12lts_2024072212log_internal10LogMessagelsILi2EEERS2_RAT__Kc.exit, %26, %21, %16, %11, %6
  %.0 = phi i1 [ %7, %6 ], [ %12, %11 ], [ %17, %16 ], [ %22, %21 ], [ %27, %26 ], [ false, %_ZN4absl12lts_2024072212log_internal10LogMessagelsILi2EEERS2_RAT__Kc.exit ]
  ret i1 %.0
}